target datalayout = "e-m:e-p270:32:32-p271:32:32-p272:64:64-i64:64-i128:128-f80:128-n8:16:32:64-S128"
target triple = "x86_64-pc-linux-gnu"

%struct.mbedtls_sha1_context = type { [2 x i32], [5 x i32], [64 x i8] }

; Function Attrs: alwaysinline nounwind uwtable
define internal void @mbedtls_put_unaligned_uint32(ptr noundef %0, i32 noundef %1) #5 {
  %3 = alloca ptr, align 8
  %4 = alloca i32, align 4
  store ptr %0, ptr %3, align 8, !tbaa !21
  store i32 %1, ptr %4, align 4, !tbaa !10
  %5 = load ptr, ptr %3, align 8, !tbaa !21
  call void @llvm.memcpy.p0.p0.i64(ptr align 1 %5, ptr align 4 %4, i64 4, i1 false)
  ret void
}

; Function Attrs: nounwind uwtable
define hidden void @mbedtls_sha1_free(ptr noundef %0) #0 {
  %2 = alloca ptr, align 8
  store ptr %0, ptr %2, align 8, !tbaa !3
  %3 = load ptr, ptr %2, align 8, !tbaa !3
  %4 = icmp eq ptr %3, null
  br i1 %4, label %5, label %6

5:                                                ; preds = %1
  br label %8

6:                                                ; preds = %1
  %7 = load ptr, ptr %2, align 8, !tbaa !3
  call void @mbedtls_platform_zeroize(ptr noundef %7, i64 noundef 92)
  br label %8

8:                                                ; preds = %6, %5
  ret void
}

; Function Attrs: nounwind uwtable
define hidden i32 @mbedtls_sha1_finish(ptr noundef %0, ptr noundef %1) #0 {
  %3 = alloca ptr, align 8
  %4 = alloca ptr, align 8
  %5 = alloca i32, align 4
  %6 = alloca i32, align 4
  %7 = alloca i32, align 4
  %8 = alloca i32, align 4
  store ptr %0, ptr %3, align 8, !tbaa !3
  store ptr %1, ptr %4, align 8, !tbaa !12
  call void @llvm.lifetime.start.p0(i64 4, ptr %5) #8
  store i32 -110, ptr %5, align 4, !tbaa !10
  call void @llvm.lifetime.start.p0(i64 4, ptr %6) #8
  call void @llvm.lifetime.start.p0(i64 4, ptr %7) #8
  call void @llvm.lifetime.start.p0(i64 4, ptr %8) #8
  %9 = load ptr, ptr %3, align 8, !tbaa !3
  %10 = getelementptr inbounds nuw %struct.mbedtls_sha1_context, ptr %9, i32 0, i32 0
  %11 = getelementptr inbounds [2 x i32], ptr %10, i64 0, i64 0
  %12 = load i32, ptr %11, align 4, !tbaa !10
  %13 = and i32 %12, 63
  store i32 %13, ptr %6, align 4, !tbaa !10
  %14 = load ptr, ptr %3, align 8, !tbaa !3
  %15 = getelementptr inbounds nuw %struct.mbedtls_sha1_context, ptr %14, i32 0, i32 2
  %16 = load i32, ptr %6, align 4, !tbaa !10
  %17 = add i32 %16, 1
  store i32 %17, ptr %6, align 4, !tbaa !10
  %18 = zext i32 %16 to i64
  %19 = getelementptr inbounds nuw [64 x i8], ptr %15, i64 0, i64 %18
  store i8 -128, ptr %19, align 1, !tbaa !9
  %20 = load i32, ptr %6, align 4, !tbaa !10
  %21 = icmp ule i32 %20, 56
  br i1 %21, label %22, label %32

22:                                               ; preds = %2
  %23 = load ptr, ptr %3, align 8, !tbaa !3
  %24 = getelementptr inbounds nuw %struct.mbedtls_sha1_context, ptr %23, i32 0, i32 2
  %25 = getelementptr inbounds [64 x i8], ptr %24, i64 0, i64 0
  %26 = load i32, ptr %6, align 4, !tbaa !10
  %27 = zext i32 %26 to i64
  %28 = getelementptr inbounds nuw i8, ptr %25, i64 %27
  %29 = load i32, ptr %6, align 4, !tbaa !10
  %30 = sub i32 56, %29
  %31 = zext i32 %30 to i64
  call void @llvm.memset.p0.i64(ptr align 1 %28, i8 0, i64 %31, i1 false)
  br label %53

32:                                               ; preds = %2
  %33 = load ptr, ptr %3, align 8, !tbaa !3
  %34 = getelementptr inbounds nuw %struct.mbedtls_sha1_context, ptr %33, i32 0, i32 2
  %35 = getelementptr inbounds [64 x i8], ptr %34, i64 0, i64 0
  %36 = load i32, ptr %6, align 4, !tbaa !10
  %37 = zext i32 %36 to i64
  %38 = getelementptr inbounds nuw i8, ptr %35, i64 %37
  %39 = load i32, ptr %6, align 4, !tbaa !10
  %40 = sub i32 64, %39
  %41 = zext i32 %40 to i64
  call void @llvm.memset.p0.i64(ptr align 1 %38, i8 0, i64 %41, i1 false)
  %42 = load ptr, ptr %3, align 8, !tbaa !3
  %43 = load ptr, ptr %3, align 8, !tbaa !3
  %44 = getelementptr inbounds nuw %struct.mbedtls_sha1_context, ptr %43, i32 0, i32 2
  %45 = getelementptr inbounds [64 x i8], ptr %44, i64 0, i64 0
  %46 = call i32 @mbedtls_internal_sha1_process(ptr noundef %42, ptr noundef %45)
  store i32 %46, ptr %5, align 4, !tbaa !10
  %47 = icmp ne i32 %46, 0
  br i1 %47, label %48, label %49

48:                                               ; preds = %32
  br label %125

49:                                               ; preds = %32
  %50 = load ptr, ptr %3, align 8, !tbaa !3
  %51 = getelementptr inbounds nuw %struct.mbedtls_sha1_context, ptr %50, i32 0, i32 2
  %52 = getelementptr inbounds [64 x i8], ptr %51, i64 0, i64 0
  call void @llvm.memset.p0.i64(ptr align 4 %52, i8 0, i64 56, i1 false)
  br label %53

53:                                               ; preds = %49, %22
  %54 = load ptr, ptr %3, align 8, !tbaa !3
  %55 = getelementptr inbounds nuw %struct.mbedtls_sha1_context, ptr %54, i32 0, i32 0
  %56 = getelementptr inbounds [2 x i32], ptr %55, i64 0, i64 0
  %57 = load i32, ptr %56, align 4, !tbaa !10
  %58 = lshr i32 %57, 29
  %59 = load ptr, ptr %3, align 8, !tbaa !3
  %60 = getelementptr inbounds nuw %struct.mbedtls_sha1_context, ptr %59, i32 0, i32 0
  %61 = getelementptr inbounds [2 x i32], ptr %60, i64 0, i64 1
  %62 = load i32, ptr %61, align 4, !tbaa !10
  %63 = shl i32 %62, 3
  %64 = or i32 %58, %63
  store i32 %64, ptr %7, align 4, !tbaa !10
  %65 = load ptr, ptr %3, align 8, !tbaa !3
  %66 = getelementptr inbounds nuw %struct.mbedtls_sha1_context, ptr %65, i32 0, i32 0
  %67 = getelementptr inbounds [2 x i32], ptr %66, i64 0, i64 0
  %68 = load i32, ptr %67, align 4, !tbaa !10
  %69 = shl i32 %68, 3
  store i32 %69, ptr %8, align 4, !tbaa !10
  %70 = load ptr, ptr %3, align 8, !tbaa !3
  %71 = getelementptr inbounds nuw %struct.mbedtls_sha1_context, ptr %70, i32 0, i32 2
  %72 = getelementptr inbounds [64 x i8], ptr %71, i64 0, i64 0
  %73 = getelementptr inbounds i8, ptr %72, i64 56
  %74 = load i32, ptr %7, align 4, !tbaa !10
  %75 = call i32 @llvm.bswap.i32(i32 %74)
  call void @mbedtls_put_unaligned_uint32(ptr noundef %73, i32 noundef %75)
  %76 = load ptr, ptr %3, align 8, !tbaa !3
  %77 = getelementptr inbounds nuw %struct.mbedtls_sha1_context, ptr %76, i32 0, i32 2
  %78 = getelementptr inbounds [64 x i8], ptr %77, i64 0, i64 0
  %79 = getelementptr inbounds i8, ptr %78, i64 60
  %80 = load i32, ptr %8, align 4, !tbaa !10
  %81 = call i32 @llvm.bswap.i32(i32 %80)
  call void @mbedtls_put_unaligned_uint32(ptr noundef %79, i32 noundef %81)
  %82 = load ptr, ptr %3, align 8, !tbaa !3
  %83 = load ptr, ptr %3, align 8, !tbaa !3
  %84 = getelementptr inbounds nuw %struct.mbedtls_sha1_context, ptr %83, i32 0, i32 2
  %85 = getelementptr inbounds [64 x i8], ptr %84, i64 0, i64 0
  %86 = call i32 @mbedtls_internal_sha1_process(ptr noundef %82, ptr noundef %85)
  store i32 %86, ptr %5, align 4, !tbaa !10
  %87 = icmp ne i32 %86, 0
  br i1 %87, label %88, label %89

88:                                               ; preds = %53
  br label %125

89:                                               ; preds = %53
  %90 = load ptr, ptr %4, align 8, !tbaa !12
  %91 = getelementptr inbounds i8, ptr %90, i64 0
  %92 = load ptr, ptr %3, align 8, !tbaa !3
  %93 = getelementptr inbounds nuw %struct.mbedtls_sha1_context, ptr %92, i32 0, i32 1
  %94 = getelementptr inbounds [5 x i32], ptr %93, i64 0, i64 0
  %95 = load i32, ptr %94, align 4, !tbaa !10
  %96 = call i32 @llvm.bswap.i32(i32 %95)
  call void @mbedtls_put_unaligned_uint32(ptr noundef %91, i32 noundef %96)
  %97 = load ptr, ptr %4, align 8, !tbaa !12
  %98 = getelementptr inbounds i8, ptr %97, i64 4
  %99 = load ptr, ptr %3, align 8, !tbaa !3
  %100 = getelementptr inbounds nuw %struct.mbedtls_sha1_context, ptr %99, i32 0, i32 1
  %101 = getelementptr inbounds [5 x i32], ptr %100, i64 0, i64 1
  %102 = load i32, ptr %101, align 4, !tbaa !10
  %103 = call i32 @llvm.bswap.i32(i32 %102)
  call void @mbedtls_put_unaligned_uint32(ptr noundef %98, i32 noundef %103)
  %104 = load ptr, ptr %4, align 8, !tbaa !12
  %105 = getelementptr inbounds i8, ptr %104, i64 8
  %106 = load ptr, ptr %3, align 8, !tbaa !3
  %107 = getelementptr inbounds nuw %struct.mbedtls_sha1_context, ptr %106, i32 0, i32 1
  %108 = getelementptr inbounds [5 x i32], ptr %107, i64 0, i64 2
  %109 = load i32, ptr %108, align 4, !tbaa !10
  %110 = call i32 @llvm.bswap.i32(i32 %109)
  call void @mbedtls_put_unaligned_uint32(ptr noundef %105, i32 noundef %110)
  %111 = load ptr, ptr %4, align 8, !tbaa !12
  %112 = getelementptr inbounds i8, ptr %111, i64 12
  %113 = load ptr, ptr %3, align 8, !tbaa !3
  %114 = getelementptr inbounds nuw %struct.mbedtls_sha1_context, ptr %113, i32 0, i32 1
  %115 = getelementptr inbounds [5 x i32], ptr %114, i64 0, i64 3
  %116 = load i32, ptr %115, align 4, !tbaa !10
  %117 = call i32 @llvm.bswap.i32(i32 %116)
  call void @mbedtls_put_unaligned_uint32(ptr noundef %112, i32 noundef %117)
  %118 = load ptr, ptr %4, align 8, !tbaa !12
  %119 = getelementptr inbounds i8, ptr %118, i64 16
  %120 = load ptr, ptr %3, align 8, !tbaa !3
  %121 = getelementptr inbounds nuw %struct.mbedtls_sha1_context, ptr %120, i32 0, i32 1
  %122 = getelementptr inbounds [5 x i32], ptr %121, i64 0, i64 4
  %123 = load i32, ptr %122, align 4, !tbaa !10
  %124 = call i32 @llvm.bswap.i32(i32 %123)
  call void @mbedtls_put_unaligned_uint32(ptr noundef %119, i32 noundef %124)
  store i32 0, ptr %5, align 4, !tbaa !10
  br label %125

125:                                              ; preds = %89, %88, %48
  %126 = load ptr, ptr %3, align 8, !tbaa !3
  call void @mbedtls_sha1_free(ptr noundef %126)
  %127 = load i32, ptr %5, align 4, !tbaa !10
  call void @llvm.lifetime.end.p0(i64 4, ptr %8) #8
  call void @llvm.lifetime.end.p0(i64 4, ptr %7) #8
  call void @llvm.lifetime.end.p0(i64 4, ptr %6) #8
  call void @llvm.lifetime.end.p0(i64 4, ptr %5) #8
  ret i32 %127
}

; Function Attrs: nounwind uwtable
define hidden i32 @mbedtls_sha1_update(ptr noundef %0, ptr noundef %1, i64 noundef %2) #0 {
  %4 = alloca i32, align 4
  %5 = alloca ptr, align 8
  %6 = alloca ptr, align 8
  %7 = alloca i64, align 8
  %8 = alloca i32, align 4
  %9 = alloca i64, align 8
  %10 = alloca i32, align 4
  %11 = alloca i32, align 4
  store ptr %0, ptr %5, align 8, !tbaa !3
  store ptr %1, ptr %6, align 8, !tbaa !12
  store i64 %2, ptr %7, align 8, !tbaa !22
  call void @llvm.lifetime.start.p0(i64 4, ptr %8) #8
  store i32 -110, ptr %8, align 4, !tbaa !10
  call void @llvm.lifetime.start.p0(i64 8, ptr %9) #8
  call void @llvm.lifetime.start.p0(i64 4, ptr %10) #8
  %12 = load i64, ptr %7, align 8, !tbaa !22
  %13 = icmp eq i64 %12, 0
  br i1 %13, label %14, label %15

14:                                               ; preds = %3
  store i32 0, ptr %4, align 4
  store i32 1, ptr %11, align 4
  br label %109

15:                                               ; preds = %3
  %16 = load ptr, ptr %5, align 8, !tbaa !3
  %17 = getelementptr inbounds nuw %struct.mbedtls_sha1_context, ptr %16, i32 0, i32 0
  %18 = getelementptr inbounds [2 x i32], ptr %17, i64 0, i64 0
  %19 = load i32, ptr %18, align 4, !tbaa !10
  %20 = and i32 %19, 63
  store i32 %20, ptr %10, align 4, !tbaa !10
  %21 = load i32, ptr %10, align 4, !tbaa !10
  %22 = sub i32 64, %21
  %23 = zext i32 %22 to i64
  store i64 %23, ptr %9, align 8, !tbaa !22
  %24 = load i64, ptr %7, align 8, !tbaa !22
  %25 = trunc i64 %24 to i32
  %26 = load ptr, ptr %5, align 8, !tbaa !3
  %27 = getelementptr inbounds nuw %struct.mbedtls_sha1_context, ptr %26, i32 0, i32 0
  %28 = getelementptr inbounds [2 x i32], ptr %27, i64 0, i64 0
  %29 = load i32, ptr %28, align 4, !tbaa !10
  %30 = add i32 %29, %25
  store i32 %30, ptr %28, align 4, !tbaa !10
  %31 = load ptr, ptr %5, align 8, !tbaa !3
  %32 = getelementptr inbounds nuw %struct.mbedtls_sha1_context, ptr %31, i32 0, i32 0
  %33 = getelementptr inbounds [2 x i32], ptr %32, i64 0, i64 0
  %34 = load i32, ptr %33, align 4, !tbaa !10
  %35 = and i32 %34, -1
  store i32 %35, ptr %33, align 4, !tbaa !10
  %36 = load ptr, ptr %5, align 8, !tbaa !3
  %37 = getelementptr inbounds nuw %struct.mbedtls_sha1_context, ptr %36, i32 0, i32 0
  %38 = getelementptr inbounds [2 x i32], ptr %37, i64 0, i64 0
  %39 = load i32, ptr %38, align 4, !tbaa !10
  %40 = load i64, ptr %7, align 8, !tbaa !22
  %41 = trunc i64 %40 to i32
  %42 = icmp ult i32 %39, %41
  br i1 %42, label %43, label %49

43:                                               ; preds = %15
  %44 = load ptr, ptr %5, align 8, !tbaa !3
  %45 = getelementptr inbounds nuw %struct.mbedtls_sha1_context, ptr %44, i32 0, i32 0
  %46 = getelementptr inbounds [2 x i32], ptr %45, i64 0, i64 1
  %47 = load i32, ptr %46, align 4, !tbaa !10
  %48 = add i32 %47, 1
  store i32 %48, ptr %46, align 4, !tbaa !10
  br label %49

49:                                               ; preds = %43, %15
  %50 = load i32, ptr %10, align 4, !tbaa !10
  %51 = icmp ne i32 %50, 0
  br i1 %51, label %52, label %80

52:                                               ; preds = %49
  %53 = load i64, ptr %7, align 8, !tbaa !22
  %54 = load i64, ptr %9, align 8, !tbaa !22
  %55 = icmp uge i64 %53, %54
  br i1 %55, label %56, label %80

56:                                               ; preds = %52
  %57 = load ptr, ptr %5, align 8, !tbaa !3
  %58 = getelementptr inbounds nuw %struct.mbedtls_sha1_context, ptr %57, i32 0, i32 2
  %59 = getelementptr inbounds [64 x i8], ptr %58, i64 0, i64 0
  %60 = load i32, ptr %10, align 4, !tbaa !10
  %61 = zext i32 %60 to i64
  %62 = getelementptr inbounds nuw i8, ptr %59, i64 %61
  %63 = load ptr, ptr %6, align 8, !tbaa !12
  %64 = load i64, ptr %9, align 8, !tbaa !22
  call void @llvm.memcpy.p0.p0.i64(ptr align 1 %62, ptr align 1 %63, i64 %64, i1 false)
  %65 = load ptr, ptr %5, align 8, !tbaa !3
  %66 = load ptr, ptr %5, align 8, !tbaa !3
  %67 = getelementptr inbounds nuw %struct.mbedtls_sha1_context, ptr %66, i32 0, i32 2
  %68 = getelementptr inbounds [64 x i8], ptr %67, i64 0, i64 0
  %69 = call i32 @mbedtls_internal_sha1_process(ptr noundef %65, ptr noundef %68)
  store i32 %69, ptr %8, align 4, !tbaa !10
  %70 = icmp ne i32 %69, 0
  br i1 %70, label %71, label %73

71:                                               ; preds = %56
  %72 = load i32, ptr %8, align 4, !tbaa !10
  store i32 %72, ptr %4, align 4
  store i32 1, ptr %11, align 4
  br label %109

73:                                               ; preds = %56
  %74 = load i64, ptr %9, align 8, !tbaa !22
  %75 = load ptr, ptr %6, align 8, !tbaa !12
  %76 = getelementptr inbounds nuw i8, ptr %75, i64 %74
  store ptr %76, ptr %6, align 8, !tbaa !12
  %77 = load i64, ptr %9, align 8, !tbaa !22
  %78 = load i64, ptr %7, align 8, !tbaa !22
  %79 = sub i64 %78, %77
  store i64 %79, ptr %7, align 8, !tbaa !22
  store i32 0, ptr %10, align 4, !tbaa !10
  br label %80

80:                                               ; preds = %73, %52, %49
  br label %81

81:                                               ; preds = %91, %80
  %82 = load i64, ptr %7, align 8, !tbaa !22
  %83 = icmp uge i64 %82, 64
  br i1 %83, label %84, label %96

84:                                               ; preds = %81
  %85 = load ptr, ptr %5, align 8, !tbaa !3
  %86 = load ptr, ptr %6, align 8, !tbaa !12
  %87 = call i32 @mbedtls_internal_sha1_process(ptr noundef %85, ptr noundef %86)
  store i32 %87, ptr %8, align 4, !tbaa !10
  %88 = icmp ne i32 %87, 0
  br i1 %88, label %89, label %91

89:                                               ; preds = %84
  %90 = load i32, ptr %8, align 4, !tbaa !10
  store i32 %90, ptr %4, align 4
  store i32 1, ptr %11, align 4
  br label %109

91:                                               ; preds = %84
  %92 = load ptr, ptr %6, align 8, !tbaa !12
  %93 = getelementptr inbounds i8, ptr %92, i64 64
  store ptr %93, ptr %6, align 8, !tbaa !12
  %94 = load i64, ptr %7, align 8, !tbaa !22
  %95 = sub i64 %94, 64
  store i64 %95, ptr %7, align 8, !tbaa !22
  br label %81, !llvm.loop !24

96:                                               ; preds = %81
  %97 = load i64, ptr %7, align 8, !tbaa !22
  %98 = icmp ugt i64 %97, 0
  br i1 %98, label %99, label %108

99:                                               ; preds = %96
  %100 = load ptr, ptr %5, align 8, !tbaa !3
  %101 = getelementptr inbounds nuw %struct.mbedtls_sha1_context, ptr %100, i32 0, i32 2
  %102 = getelementptr inbounds [64 x i8], ptr %101, i64 0, i64 0
  %103 = load i32, ptr %10, align 4, !tbaa !10
  %104 = zext i32 %103 to i64
  %105 = getelementptr inbounds nuw i8, ptr %102, i64 %104
  %106 = load ptr, ptr %6, align 8, !tbaa !12
  %107 = load i64, ptr %7, align 8, !tbaa !22
  call void @llvm.memcpy.p0.p0.i64(ptr align 1 %105, ptr align 1 %106, i64 %107, i1 false)
  br label %108

108:                                              ; preds = %99, %96
  store i32 0, ptr %4, align 4
  store i32 1, ptr %11, align 4
  br label %109

109:                                              ; preds = %108, %89, %71, %14
  call void @llvm.lifetime.end.p0(i64 4, ptr %10) #8
  call void @llvm.lifetime.end.p0(i64 8, ptr %9) #8
  call void @llvm.lifetime.end.p0(i64 4, ptr %8) #8
  %110 = load i32, ptr %4, align 4
  ret i32 %110
}

; Function Attrs: nounwind uwtable
define hidden i32 @mbedtls_sha1_starts(ptr noundef %0) #0 {
  %2 = alloca ptr, align 8
  store ptr %0, ptr %2, align 8, !tbaa !3
  %3 = load ptr, ptr %2, align 8, !tbaa !3
  %4 = getelementptr inbounds nuw %struct.mbedtls_sha1_context, ptr %3, i32 0, i32 0
  %5 = getelementptr inbounds [2 x i32], ptr %4, i64 0, i64 0
  store i32 0, ptr %5, align 4, !tbaa !10
  %6 = load ptr, ptr %2, align 8, !tbaa !3
  %7 = getelementptr inbounds nuw %struct.mbedtls_sha1_context, ptr %6, i32 0, i32 0
  %8 = getelementptr inbounds [2 x i32], ptr %7, i64 0, i64 1
  store i32 0, ptr %8, align 4, !tbaa !10
  %9 = load ptr, ptr %2, align 8, !tbaa !3
  %10 = getelementptr inbounds nuw %struct.mbedtls_sha1_context, ptr %9, i32 0, i32 1
  %11 = getelementptr inbounds [5 x i32], ptr %10, i64 0, i64 0
  store i32 1732584193, ptr %11, align 4, !tbaa !10
  %12 = load ptr, ptr %2, align 8, !tbaa !3
  %13 = getelementptr inbounds nuw %struct.mbedtls_sha1_context, ptr %12, i32 0, i32 1
  %14 = getelementptr inbounds [5 x i32], ptr %13, i64 0, i64 1
  store i32 -271733879, ptr %14, align 4, !tbaa !10
  %15 = load ptr, ptr %2, align 8, !tbaa !3
  %16 = getelementptr inbounds nuw %struct.mbedtls_sha1_context, ptr %15, i32 0, i32 1
  %17 = getelementptr inbounds [5 x i32], ptr %16, i64 0, i64 2
  store i32 -1732584194, ptr %17, align 4, !tbaa !10
  %18 = load ptr, ptr %2, align 8, !tbaa !3
  %19 = getelementptr inbounds nuw %struct.mbedtls_sha1_context, ptr %18, i32 0, i32 1
  %20 = getelementptr inbounds [5 x i32], ptr %19, i64 0, i64 3
  store i32 271733878, ptr %20, align 4, !tbaa !10
  %21 = load ptr, ptr %2, align 8, !tbaa !3
  %22 = getelementptr inbounds nuw %struct.mbedtls_sha1_context, ptr %21, i32 0, i32 1
  %23 = getelementptr inbounds [5 x i32], ptr %22, i64 0, i64 4
  store i32 -1009589776, ptr %23, align 4, !tbaa !10
  ret i32 0
}

; Function Attrs: nounwind uwtable
define hidden void @mbedtls_sha1_init(ptr noundef %0) #0 {
  %2 = alloca ptr, align 8
  store ptr %0, ptr %2, align 8, !tbaa !3
  %3 = load ptr, ptr %2, align 8, !tbaa !3
  call void @llvm.memset.p0.i64(ptr align 4 %3, i8 0, i64 92, i1 false)
  ret void
}

; Function Attrs: nounwind uwtable
define hidden i32 @mbedtls_sha1(ptr noundef %0, i64 noundef %1, ptr noundef %2) #0 {
  %4 = alloca ptr, align 8
  %5 = alloca i64, align 8
  %6 = alloca ptr, align 8
  %7 = alloca i32, align 4
  %8 = alloca %struct.mbedtls_sha1_context, align 4
  store ptr %0, ptr %4, align 8, !tbaa !12
  store i64 %1, ptr %5, align 8, !tbaa !22
  store ptr %2, ptr %6, align 8, !tbaa !12
  call void @llvm.lifetime.start.p0(i64 4, ptr %7) #8
  store i32 -110, ptr %7, align 4, !tbaa !10
  call void @llvm.lifetime.start.p0(i64 92, ptr %8) #8
  call void @mbedtls_sha1_init(ptr noundef %8)
  %9 = call i32 @mbedtls_sha1_starts(ptr noundef %8)
  store i32 %9, ptr %7, align 4, !tbaa !10
  %10 = icmp ne i32 %9, 0
  br i1 %10, label %11, label %12

11:                                               ; preds = %3
  br label %24

12:                                               ; preds = %3
  %13 = load ptr, ptr %4, align 8, !tbaa !12
  %14 = load i64, ptr %5, align 8, !tbaa !22
  %15 = call i32 @mbedtls_sha1_update(ptr noundef %8, ptr noundef %13, i64 noundef %14)
  store i32 %15, ptr %7, align 4, !tbaa !10
  %16 = icmp ne i32 %15, 0
  br i1 %16, label %17, label %18

17:                                               ; preds = %12
  br label %24

18:                                               ; preds = %12
  %19 = load ptr, ptr %6, align 8, !tbaa !12
  %20 = call i32 @mbedtls_sha1_finish(ptr noundef %8, ptr noundef %19)
  store i32 %20, ptr %7, align 4, !tbaa !10
  %21 = icmp ne i32 %20, 0
  br i1 %21, label %22, label %23

22:                                               ; preds = %18
  br label %24

23:                                               ; preds = %18
  br label %24

24:                                               ; preds = %23, %22, %17, %11
  call void @mbedtls_sha1_free(ptr noundef %8)
  %25 = load i32, ptr %7, align 4, !tbaa !10
  call void @llvm.lifetime.end.p0(i64 92, ptr %8) #8
  call void @llvm.lifetime.end.p0(i64 4, ptr %7) #8
  ret i32 %25
}