; Function Attrs: nounwind uwtable
define hidden noundef i32 @mbedtls_sha1(ptr noundef readonly captures(none) %0, i64 noundef %1, ptr noundef writeonly captures(none) %2) local_unnamed_addr #2 {
  %4 = alloca %struct.mbedtls_sha1_context, align 4
  call void @llvm.lifetime.start.p0(i64 92, ptr nonnull %4) #12
  %5 = getelementptr inbounds nuw i8, ptr %4, i64 8
  call void @llvm.memset.p0.i64(ptr noundef nonnull align 4 dereferenceable(92) %4, i8 0, i64 92, i1 false)
  store i32 1732584193, ptr %5, align 4, !tbaa !7
  %6 = getelementptr inbounds nuw i8, ptr %4, i64 12
  store i32 -271733879, ptr %6, align 4, !tbaa !7
  %7 = getelementptr inbounds nuw i8, ptr %4, i64 16
  store i32 -1732584194, ptr %7, align 4, !tbaa !7
  %8 = getelementptr inbounds nuw i8, ptr %4, i64 20
  store i32 271733878, ptr %8, align 4, !tbaa !7
  %9 = getelementptr inbounds nuw i8, ptr %4, i64 24
  store i32 -1009589776, ptr %9, align 4, !tbaa !7
  %10 = icmp eq i64 %1, 0
  br i1 %10, label %mbedtls_sha1_update.exit, label %11

11:                                               ; preds = %3
  %12 = trunc i64 %1 to i32
  store i32 %12, ptr %4, align 4, !tbaa !7
  %13 = icmp ugt i64 %1, 63
  br i1 %13, label %.lr.ph.i, label %._crit_edge.thread.i

.lr.ph.i:                                         ; preds = %11, %.lr.ph.i
  %.147.i = phi i64 [ %16, %.lr.ph.i ], [ %1, %11 ]
  %.13746.i = phi ptr [ %15, %.lr.ph.i ], [ %0, %11 ]
  %14 = call i32 @mbedtls_internal_sha1_process(ptr noundef nonnull %4, ptr noundef %.13746.i)
  %15 = getelementptr inbounds nuw i8, ptr %.13746.i, i64 64
  %16 = add i64 %.147.i, -64
  %17 = icmp ugt i64 %16, 63
  br i1 %17, label %.lr.ph.i, label %._crit_edge.i, !llvm.loop !16

._crit_edge.i:                                    ; preds = %.lr.ph.i
  %.not45.i = icmp eq i64 %16, 0
  br i1 %.not45.i, label %mbedtls_sha1_update.exit, label %._crit_edge.thread.i

._crit_edge.thread.i:                             ; preds = %11, %._crit_edge.i
  %.1.lcssa.i9 = phi i64 [ %16, %._crit_edge.i ], [ %1, %11 ]
  %.137.lcssa.i8 = phi ptr [ %15, %._crit_edge.i ], [ %0, %11 ]
  %18 = getelementptr inbounds nuw i8, ptr %4, i64 28
  call void @llvm.memcpy.p0.p0.i64(ptr nonnull align 4 %18, ptr align 1 %.137.lcssa.i8, i64 %.1.lcssa.i9, i1 false)
  br label %mbedtls_sha1_update.exit

mbedtls_sha1_update.exit:                         ; preds = %3, %._crit_edge.i, %._crit_edge.thread.i
  %19 = load i32, ptr %4, align 4, !tbaa !7
  %20 = and i32 %19, 63
  %21 = getelementptr inbounds nuw i8, ptr %4, i64 28
  %22 = zext nneg i32 %20 to i64
  %23 = getelementptr inbounds nuw [64 x i8], ptr %21, i64 0, i64 %22
  store i8 -128, ptr %23, align 1, !tbaa !4
  %24 = icmp samesign ult i32 %20, 56
  %25 = getelementptr inbounds nuw i8, ptr %23, i64 1
  br i1 %24, label %26, label %29

26:                                               ; preds = %mbedtls_sha1_update.exit
  %27 = sub nuw nsw i32 55, %20
  %28 = zext nneg i32 %27 to i64
  call void @llvm.memset.p0.i64(ptr nonnull align 1 %25, i8 0, i64 %28, i1 false)
  br label %mbedtls_sha1_finish.exit

29:                                               ; preds = %mbedtls_sha1_update.exit
  %30 = xor i32 %20, 63
  %31 = zext nneg i32 %30 to i64
  call void @llvm.memset.p0.i64(ptr nonnull align 1 %25, i8 0, i64 %31, i1 false)
  %32 = call i32 @mbedtls_internal_sha1_process(ptr noundef nonnull %4, ptr noundef nonnull %21)
  call void @llvm.memset.p0.i64(ptr noundef nonnull align 4 dereferenceable(56) %21, i8 0, i64 56, i1 false)
  %.pre.i = load i32, ptr %4, align 4, !tbaa !7
  br label %mbedtls_sha1_finish.exit

mbedtls_sha1_finish.exit:                         ; preds = %26, %29
  %33 = phi i32 [ %.pre.i, %29 ], [ %19, %26 ]
  %34 = getelementptr inbounds nuw i8, ptr %4, i64 4
  %35 = load i32, ptr %34, align 4, !tbaa !7
  %36 = tail call i32 @llvm.fshl.i32(i32 %35, i32 %33, i32 3)
  %37 = shl i32 %33, 3
  %38 = getelementptr inbounds nuw i8, ptr %4, i64 84
  %39 = tail call i32 @llvm.bswap.i32(i32 %36)
  store i32 %39, ptr %38, align 4
  %40 = getelementptr inbounds nuw i8, ptr %4, i64 88
  %41 = tail call i32 @llvm.bswap.i32(i32 %37)
  store i32 %41, ptr %40, align 4
  %42 = call i32 @mbedtls_internal_sha1_process(ptr noundef nonnull %4, ptr noundef nonnull %21)
  %43 = load i32, ptr %5, align 4, !tbaa !7
  %44 = tail call i32 @llvm.bswap.i32(i32 %43)
  store i32 %44, ptr %2, align 1
  %45 = getelementptr inbounds nuw i8, ptr %2, i64 4
  %46 = load i32, ptr %6, align 4, !tbaa !7
  %47 = tail call i32 @llvm.bswap.i32(i32 %46)
  store i32 %47, ptr %45, align 1
  %48 = getelementptr inbounds nuw i8, ptr %2, i64 8
  %49 = load i32, ptr %7, align 4, !tbaa !7
  %50 = tail call i32 @llvm.bswap.i32(i32 %49)
  store i32 %50, ptr %48, align 1
  %51 = getelementptr inbounds nuw i8, ptr %2, i64 12
  %52 = load i32, ptr %8, align 4, !tbaa !7
  %53 = tail call i32 @llvm.bswap.i32(i32 %52)
  store i32 %53, ptr %51, align 1
  %54 = getelementptr inbounds nuw i8, ptr %2, i64 16
  %55 = load i32, ptr %9, align 4, !tbaa !7
  %56 = tail call i32 @llvm.bswap.i32(i32 %55)
  store i32 %56, ptr %54, align 1
  call void @mbedtls_platform_zeroize(ptr noundef nonnull %4, i64 noundef 92) #12
  call void @mbedtls_platform_zeroize(ptr noundef nonnull %4, i64 noundef 92) #12
  call void @llvm.lifetime.end.p0(i64 92, ptr nonnull %4) #12
  ret i32 0
}